target datalayout = "e-m:e-p270:32:32-p271:32:32-p272:64:64-i64:64-i128:128-f80:128-n8:16:32:64-S128"
target triple = "x86_64-pc-linux-gnu"

%struct.jpeg_common_struct = type { ptr, ptr, ptr, ptr, i32, i32 }
%struct.my_memory_mgr = type { %struct.jpeg_memory_mgr, [2 x ptr], [2 x ptr], ptr, ptr, i64, i32 }
%struct.jpeg_memory_mgr = type { ptr, ptr, ptr, ptr, ptr, ptr, ptr, ptr, ptr, ptr, ptr, i64, i64 }
%struct.jvirt_sarray_control = type { ptr, i32, i32, i32, i32, i32, i32, i32, i32, i32, i32, ptr, %struct.backing_store_struct }
%struct.backing_store_struct = type { ptr, ptr, ptr, ptr, [64 x i8] }
%struct.jvirt_barray_control = type { ptr, i32, i32, i32, i32, i32, i32, i32, i32, i32, i32, ptr, %struct.backing_store_struct }

; Function Attrs: nounwind uwtable
define internal void @realize_virt_arrays(ptr noundef %0) #0 {
  %2 = alloca ptr, align 8
  %3 = alloca ptr, align 8
  %4 = alloca i64, align 8
  %5 = alloca i64, align 8
  %6 = alloca i64, align 8
  %7 = alloca i64, align 8
  %8 = alloca i64, align 8
  %9 = alloca ptr, align 8
  %10 = alloca ptr, align 8
  store ptr %0, ptr %2, align 8
  %11 = load ptr, ptr %2, align 8
  %12 = getelementptr inbounds %struct.jpeg_common_struct, ptr %11, i32 0, i32 1
  %13 = load ptr, ptr %12, align 8
  store ptr %13, ptr %3, align 8
  store i64 0, ptr %4, align 8
  store i64 0, ptr %5, align 8
  %14 = load ptr, ptr %3, align 8
  %15 = getelementptr inbounds %struct.my_memory_mgr, ptr %14, i32 0, i32 3
  %16 = load ptr, ptr %15, align 8
  store ptr %16, ptr %9, align 8
  br label %17

17:                                               ; preds = %51, %1
  %18 = load ptr, ptr %9, align 8
  %19 = icmp ne ptr %18, null
  br i1 %19, label %20, label %55

20:                                               ; preds = %17
  %21 = load ptr, ptr %9, align 8
  %22 = getelementptr inbounds %struct.jvirt_sarray_control, ptr %21, i32 0, i32 0
  %23 = load ptr, ptr %22, align 8
  %24 = icmp eq ptr %23, null
  br i1 %24, label %25, label %50

25:                                               ; preds = %20
  %26 = load ptr, ptr %9, align 8
  %27 = getelementptr inbounds %struct.jvirt_sarray_control, ptr %26, i32 0, i32 3
  %28 = load i32, ptr %27, align 8
  %29 = zext i32 %28 to i64
  %30 = load ptr, ptr %9, align 8
  %31 = getelementptr inbounds %struct.jvirt_sarray_control, ptr %30, i32 0, i32 2
  %32 = load i32, ptr %31, align 4
  %33 = zext i32 %32 to i64
  %34 = mul nsw i64 %29, %33
  %35 = mul i64 %34, 1
  %36 = load i64, ptr %4, align 8
  %37 = add i64 %36, %35
  store i64 %37, ptr %4, align 8
  %38 = load ptr, ptr %9, align 8
  %39 = getelementptr inbounds %struct.jvirt_sarray_control, ptr %38, i32 0, i32 1
  %40 = load i32, ptr %39, align 8
  %41 = zext i32 %40 to i64
  %42 = load ptr, ptr %9, align 8
  %43 = getelementptr inbounds %struct.jvirt_sarray_control, ptr %42, i32 0, i32 2
  %44 = load i32, ptr %43, align 4
  %45 = zext i32 %44 to i64
  %46 = mul nsw i64 %41, %45
  %47 = mul i64 %46, 1
  %48 = load i64, ptr %5, align 8
  %49 = add i64 %48, %47
  store i64 %49, ptr %5, align 8
  br label %50

50:                                               ; preds = %25, %20
  br label %51

51:                                               ; preds = %50
  %52 = load ptr, ptr %9, align 8
  %53 = getelementptr inbounds %struct.jvirt_sarray_control, ptr %52, i32 0, i32 11
  %54 = load ptr, ptr %53, align 8
  store ptr %54, ptr %9, align 8
  br label %17, !llvm.loop !13

55:                                               ; preds = %17
  %56 = load ptr, ptr %3, align 8
  %57 = getelementptr inbounds %struct.my_memory_mgr, ptr %56, i32 0, i32 4
  %58 = load ptr, ptr %57, align 8
  store ptr %58, ptr %10, align 8
  br label %59

59:                                               ; preds = %93, %55
  %60 = load ptr, ptr %10, align 8
  %61 = icmp ne ptr %60, null
  br i1 %61, label %62, label %97

62:                                               ; preds = %59
  %63 = load ptr, ptr %10, align 8
  %64 = getelementptr inbounds %struct.jvirt_barray_control, ptr %63, i32 0, i32 0
  %65 = load ptr, ptr %64, align 8
  %66 = icmp eq ptr %65, null
  br i1 %66, label %67, label %92

67:                                               ; preds = %62
  %68 = load ptr, ptr %10, align 8
  %69 = getelementptr inbounds %struct.jvirt_barray_control, ptr %68, i32 0, i32 3
  %70 = load i32, ptr %69, align 8
  %71 = zext i32 %70 to i64
  %72 = load ptr, ptr %10, align 8
  %73 = getelementptr inbounds %struct.jvirt_barray_control, ptr %72, i32 0, i32 2
  %74 = load i32, ptr %73, align 4
  %75 = zext i32 %74 to i64
  %76 = mul nsw i64 %71, %75
  %77 = mul i64 %76, 128
  %78 = load i64, ptr %4, align 8
  %79 = add i64 %78, %77
  store i64 %79, ptr %4, align 8
  %80 = load ptr, ptr %10, align 8
  %81 = getelementptr inbounds %struct.jvirt_barray_control, ptr %80, i32 0, i32 1
  %82 = load i32, ptr %81, align 8
  %83 = zext i32 %82 to i64
  %84 = load ptr, ptr %10, align 8
  %85 = getelementptr inbounds %struct.jvirt_barray_control, ptr %84, i32 0, i32 2
  %86 = load i32, ptr %85, align 4
  %87 = zext i32 %86 to i64
  %88 = mul nsw i64 %83, %87
  %89 = mul i64 %88, 128
  %90 = load i64, ptr %5, align 8
  %91 = add i64 %90, %89
  store i64 %91, ptr %5, align 8
  br label %92

92:                                               ; preds = %67, %62
  br label %93

93:                                               ; preds = %92
  %94 = load ptr, ptr %10, align 8
  %95 = getelementptr inbounds %struct.jvirt_barray_control, ptr %94, i32 0, i32 11
  %96 = load ptr, ptr %95, align 8
  store ptr %96, ptr %10, align 8
  br label %59, !llvm.loop !14

97:                                               ; preds = %59
  %98 = load i64, ptr %4, align 8
  %99 = icmp ule i64 %98, 0
  br i1 %99, label %100, label %101

100:                                              ; preds = %97
  br label %291

101:                                              ; preds = %97
  %102 = load ptr, ptr %2, align 8
  %103 = load i64, ptr %4, align 8
  %104 = load i64, ptr %5, align 8
  %105 = load ptr, ptr %3, align 8
  %106 = getelementptr inbounds %struct.my_memory_mgr, ptr %105, i32 0, i32 5
  %107 = load i64, ptr %106, align 8
  %108 = call i64 @jMemAvail(ptr noundef %102, i64 noundef %103, i64 noundef %104, i64 noundef %107)
  store i64 %108, ptr %6, align 8
  %109 = load i64, ptr %6, align 8
  %110 = load i64, ptr %5, align 8
  %111 = icmp uge i64 %109, %110
  br i1 %111, label %112, label %113

112:                                              ; preds = %101
  store i64 1000000000, ptr %8, align 8
  br label %121

113:                                              ; preds = %101
  %114 = load i64, ptr %6, align 8
  %115 = load i64, ptr %4, align 8
  %116 = udiv i64 %114, %115
  store i64 %116, ptr %8, align 8
  %117 = load i64, ptr %8, align 8
  %118 = icmp ule i64 %117, 0
  br i1 %118, label %119, label %120

119:                                              ; preds = %113
  store i64 1, ptr %8, align 8
  br label %120

120:                                              ; preds = %119, %113
  br label %121

121:                                              ; preds = %120, %112
  %122 = load ptr, ptr %3, align 8
  %123 = getelementptr inbounds %struct.my_memory_mgr, ptr %122, i32 0, i32 3
  %124 = load ptr, ptr %123, align 8
  store ptr %124, ptr %9, align 8
  br label %125

125:                                              ; preds = %202, %121
  %126 = load ptr, ptr %9, align 8
  %127 = icmp ne ptr %126, null
  br i1 %127, label %128, label %206

128:                                              ; preds = %125
  %129 = load ptr, ptr %9, align 8
  %130 = getelementptr inbounds %struct.jvirt_sarray_control, ptr %129, i32 0, i32 0
  %131 = load ptr, ptr %130, align 8
  %132 = icmp eq ptr %131, null
  br i1 %132, label %133, label %201

133:                                              ; preds = %128
  %134 = load ptr, ptr %9, align 8
  %135 = getelementptr inbounds %struct.jvirt_sarray_control, ptr %134, i32 0, i32 1
  %136 = load i32, ptr %135, align 8
  %137 = zext i32 %136 to i64
  %138 = sub nsw i64 %137, 1
  %139 = load ptr, ptr %9, align 8
  %140 = getelementptr inbounds %struct.jvirt_sarray_control, ptr %139, i32 0, i32 3
  %141 = load i32, ptr %140, align 8
  %142 = zext i32 %141 to i64
  %143 = sdiv i64 %138, %142
  %144 = add nsw i64 %143, 1
  store i64 %144, ptr %7, align 8
  %145 = load i64, ptr %7, align 8
  %146 = load i64, ptr %8, align 8
  %147 = icmp ule i64 %145, %146
  br i1 %147, label %148, label %154

148:                                              ; preds = %133
  %149 = load ptr, ptr %9, align 8
  %150 = getelementptr inbounds %struct.jvirt_sarray_control, ptr %149, i32 0, i32 1
  %151 = load i32, ptr %150, align 8
  %152 = load ptr, ptr %9, align 8
  %153 = getelementptr inbounds %struct.jvirt_sarray_control, ptr %152, i32 0, i32 4
  store i32 %151, ptr %153, align 4
  br label %179

154:                                              ; preds = %133
  %155 = load i64, ptr %8, align 8
  %156 = load ptr, ptr %9, align 8
  %157 = getelementptr inbounds %struct.jvirt_sarray_control, ptr %156, i32 0, i32 3
  %158 = load i32, ptr %157, align 8
  %159 = zext i32 %158 to i64
  %160 = mul i64 %155, %159
  %161 = trunc i64 %160 to i32
  %162 = load ptr, ptr %9, align 8
  %163 = getelementptr inbounds %struct.jvirt_sarray_control, ptr %162, i32 0, i32 4
  store i32 %161, ptr %163, align 4
  %164 = load ptr, ptr %2, align 8
  %165 = load ptr, ptr %9, align 8
  %166 = getelementptr inbounds %struct.jvirt_sarray_control, ptr %165, i32 0, i32 12
  %167 = load ptr, ptr %9, align 8
  %168 = getelementptr inbounds %struct.jvirt_sarray_control, ptr %167, i32 0, i32 1
  %169 = load i32, ptr %168, align 8
  %170 = zext i32 %169 to i64
  %171 = load ptr, ptr %9, align 8
  %172 = getelementptr inbounds %struct.jvirt_sarray_control, ptr %171, i32 0, i32 2
  %173 = load i32, ptr %172, align 4
  %174 = zext i32 %173 to i64
  %175 = mul nsw i64 %170, %174
  %176 = mul nsw i64 %175, 1
  call void @jOpenBackStore(ptr noundef %164, ptr noundef %166, i64 noundef %176)
  %177 = load ptr, ptr %9, align 8
  %178 = getelementptr inbounds %struct.jvirt_sarray_control, ptr %177, i32 0, i32 10
  store i32 1, ptr %178, align 4
  br label %179

179:                                              ; preds = %154, %148
  %180 = load ptr, ptr %2, align 8
  %181 = load ptr, ptr %9, align 8
  %182 = getelementptr inbounds %struct.jvirt_sarray_control, ptr %181, i32 0, i32 2
  %183 = load i32, ptr %182, align 4
  %184 = load ptr, ptr %9, align 8
  %185 = getelementptr inbounds %struct.jvirt_sarray_control, ptr %184, i32 0, i32 4
  %186 = load i32, ptr %185, align 4
  %187 = call ptr @alloc_sarray(ptr noundef %180, i32 noundef 1, i32 noundef %183, i32 noundef %186)
  %188 = load ptr, ptr %9, align 8
  %189 = getelementptr inbounds %struct.jvirt_sarray_control, ptr %188, i32 0, i32 0
  store ptr %187, ptr %189, align 8
  %190 = load ptr, ptr %3, align 8
  %191 = getelementptr inbounds %struct.my_memory_mgr, ptr %190, i32 0, i32 6
  %192 = load i32, ptr %191, align 8
  %193 = load ptr, ptr %9, align 8
  %194 = getelementptr inbounds %struct.jvirt_sarray_control, ptr %193, i32 0, i32 5
  store i32 %192, ptr %194, align 8
  %195 = load ptr, ptr %9, align 8
  %196 = getelementptr inbounds %struct.jvirt_sarray_control, ptr %195, i32 0, i32 6
  store i32 0, ptr %196, align 4
  %197 = load ptr, ptr %9, align 8
  %198 = getelementptr inbounds %struct.jvirt_sarray_control, ptr %197, i32 0, i32 7
  store i32 0, ptr %198, align 8
  %199 = load ptr, ptr %9, align 8
  %200 = getelementptr inbounds %struct.jvirt_sarray_control, ptr %199, i32 0, i32 9
  store i32 0, ptr %200, align 8
  br label %201

201:                                              ; preds = %179, %128
  br label %202

202:                                              ; preds = %201
  %203 = load ptr, ptr %9, align 8
  %204 = getelementptr inbounds %struct.jvirt_sarray_control, ptr %203, i32 0, i32 11
  %205 = load ptr, ptr %204, align 8
  store ptr %205, ptr %9, align 8
  br label %125, !llvm.loop !15

206:                                              ; preds = %125
  %207 = load ptr, ptr %3, align 8
  %208 = getelementptr inbounds %struct.my_memory_mgr, ptr %207, i32 0, i32 4
  %209 = load ptr, ptr %208, align 8
  store ptr %209, ptr %10, align 8
  br label %210

210:                                              ; preds = %287, %206
  %211 = load ptr, ptr %10, align 8
  %212 = icmp ne ptr %211, null
  br i1 %212, label %213, label %291

213:                                              ; preds = %210
  %214 = load ptr, ptr %10, align 8
  %215 = getelementptr inbounds %struct.jvirt_barray_control, ptr %214, i32 0, i32 0
  %216 = load ptr, ptr %215, align 8
  %217 = icmp eq ptr %216, null
  br i1 %217, label %218, label %286

218:                                              ; preds = %213
  %219 = load ptr, ptr %10, align 8
  %220 = getelementptr inbounds %struct.jvirt_barray_control, ptr %219, i32 0, i32 1
  %221 = load i32, ptr %220, align 8
  %222 = zext i32 %221 to i64
  %223 = sub nsw i64 %222, 1
  %224 = load ptr, ptr %10, align 8
  %225 = getelementptr inbounds %struct.jvirt_barray_control, ptr %224, i32 0, i32 3
  %226 = load i32, ptr %225, align 8
  %227 = zext i32 %226 to i64
  %228 = sdiv i64 %223, %227
  %229 = add nsw i64 %228, 1
  store i64 %229, ptr %7, align 8
  %230 = load i64, ptr %7, align 8
  %231 = load i64, ptr %8, align 8
  %232 = icmp ule i64 %230, %231
  br i1 %232, label %233, label %239

233:                                              ; preds = %218
  %234 = load ptr, ptr %10, align 8
  %235 = getelementptr inbounds %struct.jvirt_barray_control, ptr %234, i32 0, i32 1
  %236 = load i32, ptr %235, align 8
  %237 = load ptr, ptr %10, align 8
  %238 = getelementptr inbounds %struct.jvirt_barray_control, ptr %237, i32 0, i32 4
  store i32 %236, ptr %238, align 4
  br label %264

239:                                              ; preds = %218
  %240 = load i64, ptr %8, align 8
  %241 = load ptr, ptr %10, align 8
  %242 = getelementptr inbounds %struct.jvirt_barray_control, ptr %241, i32 0, i32 3
  %243 = load i32, ptr %242, align 8
  %244 = zext i32 %243 to i64
  %245 = mul i64 %240, %244
  %246 = trunc i64 %245 to i32
  %247 = load ptr, ptr %10, align 8
  %248 = getelementptr inbounds %struct.jvirt_barray_control, ptr %247, i32 0, i32 4
  store i32 %246, ptr %248, align 4
  %249 = load ptr, ptr %2, align 8
  %250 = load ptr, ptr %10, align 8
  %251 = getelementptr inbounds %struct.jvirt_barray_control, ptr %250, i32 0, i32 12
  %252 = load ptr, ptr %10, align 8
  %253 = getelementptr inbounds %struct.jvirt_barray_control, ptr %252, i32 0, i32 1
  %254 = load i32, ptr %253, align 8
  %255 = zext i32 %254 to i64
  %256 = load ptr, ptr %10, align 8
  %257 = getelementptr inbounds %struct.jvirt_barray_control, ptr %256, i32 0, i32 2
  %258 = load i32, ptr %257, align 4
  %259 = zext i32 %258 to i64
  %260 = mul nsw i64 %255, %259
  %261 = mul nsw i64 %260, 128
  call void @jOpenBackStore(ptr noundef %249, ptr noundef %251, i64 noundef %261)
  %262 = load ptr, ptr %10, align 8
  %263 = getelementptr inbounds %struct.jvirt_barray_control, ptr %262, i32 0, i32 10
  store i32 1, ptr %263, align 4
  br label %264

264:                                              ; preds = %239, %233
  %265 = load ptr, ptr %2, align 8
  %266 = load ptr, ptr %10, align 8
  %267 = getelementptr inbounds %struct.jvirt_barray_control, ptr %266, i32 0, i32 2
  %268 = load i32, ptr %267, align 4
  %269 = load ptr, ptr %10, align 8
  %270 = getelementptr inbounds %struct.jvirt_barray_control, ptr %269, i32 0, i32 4
  %271 = load i32, ptr %270, align 4
  %272 = call ptr @alloc_barray(ptr noundef %265, i32 noundef 1, i32 noundef %268, i32 noundef %271)
  %273 = load ptr, ptr %10, align 8
  %274 = getelementptr inbounds %struct.jvirt_barray_control, ptr %273, i32 0, i32 0
  store ptr %272, ptr %274, align 8
  %275 = load ptr, ptr %3, align 8
  %276 = getelementptr inbounds %struct.my_memory_mgr, ptr %275, i32 0, i32 6
  %277 = load i32, ptr %276, align 8
  %278 = load ptr, ptr %10, align 8
  %279 = getelementptr inbounds %struct.jvirt_barray_control, ptr %278, i32 0, i32 5
  store i32 %277, ptr %279, align 8
  %280 = load ptr, ptr %10, align 8
  %281 = getelementptr inbounds %struct.jvirt_barray_control, ptr %280, i32 0, i32 6
  store i32 0, ptr %281, align 4
  %282 = load ptr, ptr %10, align 8
  %283 = getelementptr inbounds %struct.jvirt_barray_control, ptr %282, i32 0, i32 7
  store i32 0, ptr %283, align 8
  %284 = load ptr, ptr %10, align 8
  %285 = getelementptr inbounds %struct.jvirt_barray_control, ptr %284, i32 0, i32 9
  store i32 0, ptr %285, align 8
  br label %286

286:                                              ; preds = %264, %213
  br label %287

287:                                              ; preds = %286
  %288 = load ptr, ptr %10, align 8
  %289 = getelementptr inbounds %struct.jvirt_barray_control, ptr %288, i32 0, i32 11
  %290 = load ptr, ptr %289, align 8
  store ptr %290, ptr %10, align 8
  br label %210, !llvm.loop !16

291:                                              ; preds = %210, %100
  ret void
}