; Function Attrs: nounwind uwtable
define internal void @realize_virt_arrays(ptr noundef %0) #0 {
  %2 = getelementptr inbounds i8, ptr %0, i64 8
  %3 = load ptr, ptr %2, align 8
  %4 = getelementptr inbounds i8, ptr %3, i64 136
  %.084100 = load ptr, ptr %4, align 8
  %.not101 = icmp eq ptr %.084100, null
  br i1 %.not101, label %._crit_edge, label %.lr.ph

.lr.ph:                                           ; preds = %1, %21
  %.084104 = phi ptr [ %.084, %21 ], [ %.084100, %1 ]
  %.087103 = phi i64 [ %.188, %21 ], [ 0, %1 ]
  %.089102 = phi i64 [ %.190, %21 ], [ 0, %1 ]
  %5 = load ptr, ptr %.084104, align 8
  %6 = icmp eq ptr %5, null
  br i1 %6, label %7, label %21

7:                                                ; preds = %.lr.ph
  %8 = getelementptr inbounds i8, ptr %.084104, i64 16
  %9 = load i32, ptr %8, align 8
  %10 = zext i32 %9 to i64
  %11 = getelementptr inbounds i8, ptr %.084104, i64 12
  %12 = load i32, ptr %11, align 4
  %13 = zext i32 %12 to i64
  %14 = mul nuw nsw i64 %13, %10
  %15 = add i64 %14, %.087103
  %16 = getelementptr inbounds i8, ptr %.084104, i64 8
  %17 = load i32, ptr %16, align 8
  %18 = zext i32 %17 to i64
  %19 = mul nuw nsw i64 %18, %13
  %20 = add i64 %19, %.089102
  br label %21

21:                                               ; preds = %.lr.ph, %7
  %.190 = phi i64 [ %20, %7 ], [ %.089102, %.lr.ph ]
  %.188 = phi i64 [ %15, %7 ], [ %.087103, %.lr.ph ]
  %22 = getelementptr inbounds i8, ptr %.084104, i64 48
  %.084 = load ptr, ptr %22, align 8
  %.not = icmp eq ptr %.084, null
  br i1 %.not, label %._crit_edge, label %.lr.ph, !llvm.loop !12

._crit_edge:                                      ; preds = %21, %1
  %.089.lcssa = phi i64 [ 0, %1 ], [ %.190, %21 ]
  %.087.lcssa = phi i64 [ 0, %1 ], [ %.188, %21 ]
  %23 = getelementptr inbounds i8, ptr %3, i64 144
  %.0106 = load ptr, ptr %23, align 8
  %.not94107 = icmp eq ptr %.0106, null
  br i1 %.not94107, label %._crit_edge113, label %.lr.ph112

.lr.ph112:                                        ; preds = %._crit_edge, %42
  %.0110 = phi ptr [ %.0, %42 ], [ %.0106, %._crit_edge ]
  %.2109 = phi i64 [ %.3, %42 ], [ %.087.lcssa, %._crit_edge ]
  %.291108 = phi i64 [ %.392, %42 ], [ %.089.lcssa, %._crit_edge ]
  %24 = load ptr, ptr %.0110, align 8
  %25 = icmp eq ptr %24, null
  br i1 %25, label %26, label %42

26:                                               ; preds = %.lr.ph112
  %27 = getelementptr inbounds i8, ptr %.0110, i64 16
  %28 = load i32, ptr %27, align 8
  %29 = zext i32 %28 to i64
  %30 = getelementptr inbounds i8, ptr %.0110, i64 12
  %31 = load i32, ptr %30, align 4
  %32 = zext i32 %31 to i64
  %33 = shl nuw nsw i64 %29, 7
  %34 = mul i64 %33, %32
  %35 = add i64 %34, %.2109
  %36 = getelementptr inbounds i8, ptr %.0110, i64 8
  %37 = load i32, ptr %36, align 8
  %38 = zext i32 %37 to i64
  %39 = shl nuw nsw i64 %32, 7
  %40 = mul i64 %39, %38
  %41 = add i64 %40, %.291108
  br label %42

42:                                               ; preds = %.lr.ph112, %26
  %.392 = phi i64 [ %41, %26 ], [ %.291108, %.lr.ph112 ]
  %.3 = phi i64 [ %35, %26 ], [ %.2109, %.lr.ph112 ]
  %43 = getelementptr inbounds i8, ptr %.0110, i64 48
  %.0 = load ptr, ptr %43, align 8
  %.not94 = icmp eq ptr %.0, null
  br i1 %.not94, label %._crit_edge113, label %.lr.ph112, !llvm.loop !13

._crit_edge113:                                   ; preds = %42, %._crit_edge
  %.291.lcssa = phi i64 [ %.089.lcssa, %._crit_edge ], [ %.392, %42 ]
  %.2.lcssa = phi i64 [ %.087.lcssa, %._crit_edge ], [ %.3, %42 ]
  %44 = icmp eq i64 %.2.lcssa, 0
  br i1 %44, label %.loopexit, label %45

45:                                               ; preds = %._crit_edge113
  %46 = getelementptr inbounds i8, ptr %3, i64 152
  %47 = load i64, ptr %46, align 8
  %48 = tail call i64 @jMemAvail(ptr noundef %0, i64 noundef %.2.lcssa, i64 noundef %.291.lcssa, i64 noundef %47) #6
  %.not95 = icmp ult i64 %48, %.291.lcssa
  br i1 %.not95, label %49, label %52

49:                                               ; preds = %45
  %50 = udiv i64 %48, %.2.lcssa
  %51 = icmp ugt i64 %.2.lcssa, %48
  %spec.store.select = select i1 %51, i64 1, i64 %50
  br label %52

52:                                               ; preds = %45, %49
  %.086 = phi i64 [ %spec.store.select, %49 ], [ 1000000000, %45 ]
  %.185116 = load ptr, ptr %4, align 8
  %.not96117 = icmp eq ptr %.185116, null
  br i1 %.not96117, label %.preheader, label %.lr.ph120

.lr.ph120:                                        ; preds = %52
  %53 = trunc i64 %.086 to i32
  %54 = getelementptr inbounds i8, ptr %3, i64 160
  br label %57

.preheader:                                       ; preds = %91, %52
  %.1121 = load ptr, ptr %23, align 8
  %.not97122 = icmp eq ptr %.1121, null
  br i1 %.not97122, label %.loopexit, label %.lr.ph124

.lr.ph124:                                        ; preds = %.preheader
  %55 = trunc i64 %.086 to i32
  %56 = getelementptr inbounds i8, ptr %3, i64 160
  br label %93

57:                                               ; preds = %.lr.ph120, %91
  %.185118 = phi ptr [ %.185116, %.lr.ph120 ], [ %.185, %91 ]
  %58 = load ptr, ptr %.185118, align 8
  %59 = icmp eq ptr %58, null
  br i1 %59, label %60, label %91

60:                                               ; preds = %57
  %61 = getelementptr inbounds i8, ptr %.185118, i64 8
  %62 = load i32, ptr %61, align 8
  %63 = zext i32 %62 to i64
  %64 = add nsw i64 %63, -1
  %65 = getelementptr inbounds i8, ptr %.185118, i64 16
  %66 = load i32, ptr %65, align 8
  %67 = zext i32 %66 to i64
  %68 = sdiv i64 %64, %67
  %69 = add nsw i64 %68, 1
  %.not99 = icmp ugt i64 %69, %.086
  br i1 %.not99, label %72, label %70

70:                                               ; preds = %60
  %71 = getelementptr inbounds i8, ptr %.185118, i64 20
  store i32 %62, ptr %71, align 4
  br label %81

72:                                               ; preds = %60
  %73 = mul i32 %66, %53
  %74 = getelementptr inbounds i8, ptr %.185118, i64 20
  store i32 %73, ptr %74, align 4
  %75 = getelementptr inbounds i8, ptr %.185118, i64 56
  %76 = getelementptr inbounds i8, ptr %.185118, i64 12
  %77 = load i32, ptr %76, align 4
  %78 = zext i32 %77 to i64
  %79 = mul nuw nsw i64 %78, %63
  tail call void @jOpenBackStore(ptr noundef %0, ptr noundef nonnull %75, i64 noundef %79) #6
  %80 = getelementptr inbounds i8, ptr %.185118, i64 44
  store i32 1, ptr %80, align 4
  %.pre = load i32, ptr %74, align 4
  br label %81

81:                                               ; preds = %72, %70
  %82 = phi i32 [ %.pre, %72 ], [ %62, %70 ]
  %83 = getelementptr inbounds i8, ptr %.185118, i64 12
  %84 = load i32, ptr %83, align 4
  %85 = tail call ptr @alloc_sarray(ptr noundef %0, i32 noundef 1, i32 noundef %84, i32 noundef %82)
  store ptr %85, ptr %.185118, align 8
  %86 = load i32, ptr %54, align 8
  %87 = getelementptr inbounds i8, ptr %.185118, i64 24
  store i32 %86, ptr %87, align 8
  %88 = getelementptr inbounds i8, ptr %.185118, i64 28
  store i32 0, ptr %88, align 4
  %89 = getelementptr inbounds i8, ptr %.185118, i64 32
  store i32 0, ptr %89, align 8
  %90 = getelementptr inbounds i8, ptr %.185118, i64 40
  store i32 0, ptr %90, align 8
  br label %91

91:                                               ; preds = %57, %81
  %92 = getelementptr inbounds i8, ptr %.185118, i64 48
  %.185 = load ptr, ptr %92, align 8
  %.not96 = icmp eq ptr %.185, null
  br i1 %.not96, label %.preheader, label %57, !llvm.loop !14

93:                                               ; preds = %.lr.ph124, %128
  %.1123 = phi ptr [ %.1121, %.lr.ph124 ], [ %.1, %128 ]
  %94 = load ptr, ptr %.1123, align 8
  %95 = icmp eq ptr %94, null
  br i1 %95, label %96, label %128

96:                                               ; preds = %93
  %97 = getelementptr inbounds i8, ptr %.1123, i64 8
  %98 = load i32, ptr %97, align 8
  %99 = zext i32 %98 to i64
  %100 = add nsw i64 %99, -1
  %101 = getelementptr inbounds i8, ptr %.1123, i64 16
  %102 = load i32, ptr %101, align 8
  %103 = zext i32 %102 to i64
  %104 = sdiv i64 %100, %103
  %105 = add nsw i64 %104, 1
  %.not98 = icmp ugt i64 %105, %.086
  br i1 %.not98, label %108, label %106

106:                                              ; preds = %96
  %107 = getelementptr inbounds i8, ptr %.1123, i64 20
  store i32 %98, ptr %107, align 4
  br label %118

108:                                              ; preds = %96
  %109 = mul i32 %102, %55
  %110 = getelementptr inbounds i8, ptr %.1123, i64 20
  store i32 %109, ptr %110, align 4
  %111 = getelementptr inbounds i8, ptr %.1123, i64 56
  %112 = getelementptr inbounds i8, ptr %.1123, i64 12
  %113 = load i32, ptr %112, align 4
  %114 = zext i32 %113 to i64
  %115 = shl nuw nsw i64 %99, 7
  %116 = mul i64 %115, %114
  tail call void @jOpenBackStore(ptr noundef %0, ptr noundef nonnull %111, i64 noundef %116) #6
  %117 = getelementptr inbounds i8, ptr %.1123, i64 44
  store i32 1, ptr %117, align 4
  %.pre126 = load i32, ptr %110, align 4
  br label %118

118:                                              ; preds = %108, %106
  %119 = phi i32 [ %.pre126, %108 ], [ %98, %106 ]
  %120 = getelementptr inbounds i8, ptr %.1123, i64 12
  %121 = load i32, ptr %120, align 4
  %122 = tail call ptr @alloc_barray(ptr noundef %0, i32 noundef 1, i32 noundef %121, i32 noundef %119)
  store ptr %122, ptr %.1123, align 8
  %123 = load i32, ptr %56, align 8
  %124 = getelementptr inbounds i8, ptr %.1123, i64 24
  store i32 %123, ptr %124, align 8
  %125 = getelementptr inbounds i8, ptr %.1123, i64 28
  store i32 0, ptr %125, align 4
  %126 = getelementptr inbounds i8, ptr %.1123, i64 32
  store i32 0, ptr %126, align 8
  %127 = getelementptr inbounds i8, ptr %.1123, i64 40
  store i32 0, ptr %127, align 8
  br label %128

128:                                              ; preds = %93, %118
  %129 = getelementptr inbounds i8, ptr %.1123, i64 48
  %.1 = load ptr, ptr %129, align 8
  %.not97 = icmp eq ptr %.1, null
  br i1 %.not97, label %.loopexit, label %93, !llvm.loop !15

.loopexit:                                        ; preds = %128, %.preheader, %._crit_edge113
  ret void
}